target datalayout = "e-m:e-p270:32:32-p271:32:32-p272:64:64-i64:64-i128:128-f80:128-n8:16:32:64-S128"
target triple = "x86_64-pc-linux-gnu"

%struct.slurm_conf_t = type { i64, ptr, i16, ptr, ptr, ptr, ptr, ptr, i16, ptr, ptr, ptr, ptr, ptr, ptr, ptr, i16, ptr, ptr, ptr, ptr, i16, ptr, ptr, ptr, i64, ptr, ptr, ptr, ptr, i16, ptr, ptr, i16, i32, ptr, i32, ptr, i32, i32, ptr, ptr, i64, i64, ptr, i16, i16, ptr, i32, i32, ptr, i32, ptr, i32, i16, i16, i16, ptr, i16, i16, ptr, ptr, i32, i16, i16, ptr, i32, i16, ptr, ptr, ptr, ptr, i16, ptr, ptr, ptr, ptr, i32, ptr, ptr, ptr, ptr, i16, i16, ptr, i32, i32, i32, i16, i16, ptr, ptr, i16, ptr, ptr, i32, i32, i32, i32, i32, i64, i32, i32, i16, ptr, ptr, i32, ptr, ptr, ptr, i16, i32, ptr, ptr, i16, ptr, ptr, i32, i16, ptr, ptr, ptr, ptr, i32, i32, i16, i16, i32, ptr, i16, ptr, i32, i32, i32, i32, i32, i32, ptr, i16, ptr, ptr, i32, i16, ptr, i32, i16, i16, ptr, ptr, ptr, i16, ptr, ptr, ptr, ptr, i16, i16, ptr, i16, ptr, i16, ptr, i16, ptr, i16, ptr, ptr, ptr, ptr, i16, ptr, ptr, ptr, i32, ptr, i32, ptr, ptr, i16, ptr, ptr, i32, i16, ptr, ptr, i16, i16, ptr, i16, ptr, ptr, ptr, i32, ptr, i16, i16, ptr, ptr, ptr, ptr, ptr, ptr, ptr, ptr, i16, i32, i16, ptr, ptr, ptr, ptr, i32, ptr, ptr, ptr, i16, ptr, ptr, ptr, i16, ptr, i16, ptr, i16, i16, ptr }
%struct.xcgroup_t = type { ptr, ptr, ptr, i32, i32, i32 }
%struct.xcgroup_ns_t = type { ptr, ptr, ptr, ptr }

@plugin_type = external constant [0 x i8], align 1
@.str.13 = private unnamed_addr constant [5 x i8] c"%s%s\00", align 1
@slurm_conf = dso_local global %struct.slurm_conf_t zeroinitializer, align 8
@.str.14 = private unnamed_addr constant [74 x i8] c"%s: %s: CGROUP: unable to build cgroup '%s' absolute path in ns '%s' : %m\00", align 1
@__func__.common_cgroup_create = private unnamed_addr constant [21 x i8] c"common_cgroup_create\00", align 1

; Function Attrs: nounwind uwtable
define dso_local i32 @common_cgroup_create(ptr noundef %0, ptr noundef %1, ptr noundef %2, i32 noundef %3, i32 noundef %4) #0 {
  %6 = alloca i32, align 4
  %7 = alloca ptr, align 8
  %8 = alloca ptr, align 8
  %9 = alloca ptr, align 8
  %10 = alloca i32, align 4
  %11 = alloca i32, align 4
  %12 = alloca i32, align 4
  %13 = alloca [4096 x i8], align 16
  %14 = alloca i32, align 4
  store ptr %0, ptr %7, align 8
  store ptr %1, ptr %8, align 8
  store ptr %2, ptr %9, align 8
  store i32 %3, ptr %10, align 4
  store i32 %4, ptr %11, align 4
  call void @llvm.lifetime.start.p0(i64 4, ptr %12) #6
  store i32 -1, ptr %12, align 4
  call void @llvm.lifetime.start.p0(i64 4096, ptr %13) #6
  %15 = getelementptr inbounds [4096 x i8], ptr %13, i64 0, i64 0
  %16 = load ptr, ptr %7, align 8
  %17 = getelementptr inbounds nuw %struct.xcgroup_ns_t, ptr %16, i32 0, i32 1
  %18 = load ptr, ptr %17, align 8
  %19 = load ptr, ptr %9, align 8
  %20 = call i32 (ptr, i64, ptr, ...) @snprintf(ptr noundef %15, i64 noundef 4096, ptr noundef @.str.13, ptr noundef %18, ptr noundef %19) #6
  %21 = icmp sge i32 %20, 4096
  br i1 %21, label %22, label %43

22:                                               ; preds = %5
  br label %23

23:                                               ; preds = %22
  %24 = load i64, ptr getelementptr inbounds nuw (%struct.slurm_conf_t, ptr @slurm_conf, i32 0, i32 42), align 8
  %25 = and i64 %24, 36028797018963968
  %26 = icmp ne i64 %25, 0
  br i1 %26, label %27, label %39

27:                                               ; preds = %23
  br label %28

28:                                               ; preds = %27
  %29 = call i32 @get_log_level()
  %30 = icmp sge i32 %29, 4
  br i1 %30, label %31, label %36

31:                                               ; preds = %28
  %32 = load ptr, ptr %9, align 8
  %33 = load ptr, ptr %7, align 8
  %34 = getelementptr inbounds nuw %struct.xcgroup_ns_t, ptr %33, i32 0, i32 3
  %35 = load ptr, ptr %34, align 8
  call void (i32, ptr, ...) @log_var(i32 noundef 4, ptr noundef @.str.14, ptr noundef @plugin_type, ptr noundef @__func__.common_cgroup_create, ptr noundef %32, ptr noundef %35)
  br label %36

36:                                               ; preds = %31, %28
  br label %37

37:                                               ; preds = %36
  br label %38

38:                                               ; preds = %37
  br label %39

39:                                               ; preds = %38, %23
  br label %40

40:                                               ; preds = %39
  br label %41

41:                                               ; preds = %40
  %42 = load i32, ptr %12, align 4
  store i32 %42, ptr %6, align 4
  store i32 1, ptr %14, align 4
  br label %61

43:                                               ; preds = %5
  %44 = load ptr, ptr %7, align 8
  %45 = load ptr, ptr %8, align 8
  %46 = getelementptr inbounds nuw %struct.xcgroup_t, ptr %45, i32 0, i32 0
  store ptr %44, ptr %46, align 8
  %47 = load ptr, ptr %9, align 8
  %48 = call ptr @xstrdup(ptr noundef %47)
  %49 = load ptr, ptr %8, align 8
  %50 = getelementptr inbounds nuw %struct.xcgroup_t, ptr %49, i32 0, i32 1
  store ptr %48, ptr %50, align 8
  %51 = getelementptr inbounds [4096 x i8], ptr %13, i64 0, i64 0
  %52 = call ptr @xstrdup(ptr noundef %51)
  %53 = load ptr, ptr %8, align 8
  %54 = getelementptr inbounds nuw %struct.xcgroup_t, ptr %53, i32 0, i32 2
  store ptr %52, ptr %54, align 8
  %55 = load i32, ptr %10, align 4
  %56 = load ptr, ptr %8, align 8
  %57 = getelementptr inbounds nuw %struct.xcgroup_t, ptr %56, i32 0, i32 3
  store i32 %55, ptr %57, align 8
  %58 = load i32, ptr %11, align 4
  %59 = load ptr, ptr %8, align 8
  %60 = getelementptr inbounds nuw %struct.xcgroup_t, ptr %59, i32 0, i32 4
  store i32 %58, ptr %60, align 4
  store i32 0, ptr %6, align 4
  store i32 1, ptr %14, align 4
  br label %61

61:                                               ; preds = %43, %41
  call void @llvm.lifetime.end.p0(i64 4096, ptr %13) #6
  call void @llvm.lifetime.end.p0(i64 4, ptr %12) #6
  %62 = load i32, ptr %6, align 4
  ret i32 %62
}