; Function Attrs: nounwind uwtable
define dso_local range(i32 -1, 1) i32 @common_cgroup_create(ptr noundef %0, ptr noundef writeonly captures(none) %1, ptr noundef %2, i32 noundef %3, i32 noundef %4) local_unnamed_addr #0 {
  %6 = alloca [4096 x i8], align 16
  call void @llvm.lifetime.start.p0(i64 4096, ptr nonnull %6) #8
  %7 = getelementptr inbounds nuw i8, ptr %0, i64 8
  %8 = load ptr, ptr %7, align 8
  %9 = call i32 (ptr, i64, ptr, ...) @snprintf(ptr noundef nonnull dereferenceable(1) %6, i64 noundef 4096, ptr noundef nonnull @.str.13, ptr noundef %8, ptr noundef %2) #8
  %10 = icmp sgt i32 %9, 4095
  br i1 %10, label %11, label %20

11:                                               ; preds = %5
  %12 = load i64, ptr getelementptr inbounds nuw (i8, ptr @slurm_conf, i64 320), align 8
  %13 = and i64 %12, 36028797018963968
  %.not = icmp eq i64 %13, 0
  br i1 %.not, label %27, label %14

14:                                               ; preds = %11
  %15 = tail call i32 @get_log_level() #8
  %16 = icmp sgt i32 %15, 3
  br i1 %16, label %17, label %27

17:                                               ; preds = %14
  %18 = getelementptr inbounds nuw i8, ptr %0, i64 24
  %19 = load ptr, ptr %18, align 8
  tail call void (i32, ptr, ...) @log_var(i32 noundef 4, ptr noundef nonnull @.str.14, ptr noundef nonnull @plugin_type, ptr noundef nonnull @__func__.common_cgroup_create, ptr noundef %2, ptr noundef %19) #8
  br label %27

20:                                               ; preds = %5
  store ptr %0, ptr %1, align 8
  %21 = tail call ptr @xstrdup(ptr noundef %2) #8
  %22 = getelementptr inbounds nuw i8, ptr %1, i64 8
  store ptr %21, ptr %22, align 8
  %23 = call ptr @xstrdup(ptr noundef nonnull %6) #8
  %24 = getelementptr inbounds nuw i8, ptr %1, i64 16
  store ptr %23, ptr %24, align 8
  %25 = getelementptr inbounds nuw i8, ptr %1, i64 24
  store i32 %3, ptr %25, align 8
  %26 = getelementptr inbounds nuw i8, ptr %1, i64 28
  store i32 %4, ptr %26, align 4
  br label %27

27:                                               ; preds = %11, %17, %14, %20
  %.0 = phi i32 [ 0, %20 ], [ -1, %14 ], [ -1, %17 ], [ -1, %11 ]
  call void @llvm.lifetime.end.p0(i64 4096, ptr nonnull %6) #8
  ret i32 %.0
}